; Function Attrs: mustprogress nofree nounwind willreturn memory(inaccessiblemem: readwrite) uwtable
define internal fastcc noalias noundef ptr @_ZL17stbi__malloc_mad2iii(i32 noundef %0, i32 noundef %1, i32 noundef range(i32 0, 16) %2) unnamed_addr #15 {
  %4 = or i32 %1, %0
  %or.cond.not.i.i = icmp sgt i32 %4, -1
  br i1 %or.cond.not.i.i, label %5, label %_ZL21stbi__mad2sizes_validiii.exit.thread

5:                                                ; preds = %3
  %6 = icmp eq i32 %1, 0
  br i1 %6, label %_ZL21stbi__mad2sizes_validiii.exit, label %_ZL21stbi__mul2sizes_validii.exit.i

_ZL21stbi__mul2sizes_validii.exit.i:              ; preds = %5
  %7 = udiv i32 2147483647, %1
  %.not10.i = icmp sgt i32 %0, %7
  br i1 %.not10.i, label %_ZL21stbi__mad2sizes_validiii.exit.thread, label %_ZL21stbi__mad2sizes_validiii.exit

_ZL21stbi__mad2sizes_validiii.exit:               ; preds = %5, %_ZL21stbi__mul2sizes_validii.exit.i
  %8 = mul nsw i32 %1, %0
  %9 = xor i32 %2, 2147483647
  %.not7 = icmp sgt i32 %8, %9
  br i1 %.not7, label %_ZL21stbi__mad2sizes_validiii.exit.thread, label %10

10:                                               ; preds = %_ZL21stbi__mad2sizes_validiii.exit
  %11 = add nsw i32 %8, %2
  %12 = sext i32 %11 to i64
  %13 = tail call noalias noundef ptr @malloc(i64 noundef range(i64 -8589934588, 8589934589) %12) #42
  br label %_ZL21stbi__mad2sizes_validiii.exit.thread

_ZL21stbi__mad2sizes_validiii.exit.thread:        ; preds = %3, %_ZL21stbi__mul2sizes_validii.exit.i, %_ZL21stbi__mad2sizes_validiii.exit, %10
  %.0 = phi ptr [ %13, %10 ], [ null, %_ZL21stbi__mad2sizes_validiii.exit ], [ null, %_ZL21stbi__mul2sizes_validii.exit.i ], [ null, %3 ]
  ret ptr %.0
}